target datalayout = "e-m:e-p270:32:32-p271:32:32-p272:64:64-i64:64-i128:128-f80:128-n8:16:32:64-S128"
target triple = "x86_64-pc-linux-gnu"

%class.ImageFileReaderTable = type { i32, i32, ptr }

; Function Attrs: mustprogress nounwind uwtable
define hidden noundef zeroext i1 @_ZN20ImageFileReaderTable8containsEP15ImageFileReader(ptr noundef nonnull align 8 dereferenceable(16) %0, ptr noundef %1) #0 align 2 {
  %3 = alloca i1, align 1
  %4 = alloca ptr, align 8
  %5 = alloca ptr, align 8
  %6 = alloca i32, align 4
  store ptr %0, ptr %4, align 8
  store ptr %1, ptr %5, align 8
  %7 = load ptr, ptr %4, align 8
  store i32 0, ptr %6, align 4
  br label %8

8:                                                ; preds = %24, %2
  %9 = load i32, ptr %6, align 4
  %10 = getelementptr inbounds %class.ImageFileReaderTable, ptr %7, i32 0, i32 0
  %11 = load i32, ptr %10, align 8
  %12 = icmp ult i32 %9, %11
  br i1 %12, label %13, label %27

13:                                               ; preds = %8
  %14 = getelementptr inbounds %class.ImageFileReaderTable, ptr %7, i32 0, i32 2
  %15 = load ptr, ptr %14, align 8
  %16 = load i32, ptr %6, align 4
  %17 = zext i32 %16 to i64
  %18 = getelementptr inbounds ptr, ptr %15, i64 %17
  %19 = load ptr, ptr %18, align 8
  %20 = load ptr, ptr %5, align 8
  %21 = icmp eq ptr %19, %20
  br i1 %21, label %22, label %23

22:                                               ; preds = %13
  store i1 true, ptr %3, align 1
  br label %28

23:                                               ; preds = %13
  br label %24

24:                                               ; preds = %23
  %25 = load i32, ptr %6, align 4
  %26 = add i32 %25, 1
  store i32 %26, ptr %6, align 4
  br label %8, !llvm.loop !14

27:                                               ; preds = %8
  store i1 false, ptr %3, align 1
  br label %28

28:                                               ; preds = %27, %22
  %29 = load i1, ptr %3, align 1
  ret i1 %29
}