; Function Attrs: mustprogress nofree norecurse nosync nounwind willreturn memory(read, inaccessiblemem: none) uwtable
define hidden noundef zeroext i1 @_ZN20ImageFileReaderTable8containsEP15ImageFileReader(ptr nocapture noundef nonnull readonly align 8 dereferenceable(16) %0, ptr noundef readnone %1) local_unnamed_addr #0 align 2 {
  %3 = load i32, ptr %0, align 8
  %.not = icmp eq i32 %3, 0
  br i1 %.not, label %._crit_edge, label %.lr.ph

.lr.ph:                                           ; preds = %2
  %4 = getelementptr inbounds i8, ptr %0, i64 8
  %5 = load ptr, ptr %4, align 8
  %6 = zext i32 %3 to i64
  %7 = load ptr, ptr %5, align 8
  %8 = icmp eq ptr %7, %1
  br i1 %8, label %._crit_edge, label %.lr.ph10

.lr.ph10:                                         ; preds = %.lr.ph, %9
  %indvars.iv9 = phi i64 [ %indvars.iv.next, %9 ], [ 0, %.lr.ph ]
  %indvars.iv.next = add nuw nsw i64 %indvars.iv9, 1
  %exitcond.not = icmp eq i64 %indvars.iv.next, %6
  br i1 %exitcond.not, label %._crit_edge.loopexit, label %9, !llvm.loop !13

9:                                                ; preds = %.lr.ph10
  %10 = getelementptr inbounds ptr, ptr %5, i64 %indvars.iv.next
  %11 = load ptr, ptr %10, align 8
  %12 = icmp eq ptr %11, %1
  br i1 %12, label %._crit_edge.loopexit, label %.lr.ph10, !llvm.loop !13

._crit_edge.loopexit:                             ; preds = %9, %.lr.ph10
  %13 = icmp ult i64 %indvars.iv.next, %6
  br label %._crit_edge

._crit_edge:                                      ; preds = %._crit_edge.loopexit, %.lr.ph, %2
  %.lcssa = phi i1 [ false, %2 ], [ true, %.lr.ph ], [ %13, %._crit_edge.loopexit ]
  ret i1 %.lcssa
}